Certificate:
    Data:
        Version: 3 (0x2)
        Serial Number: 2 (0x2)
    Signature Algorithm: sha256WithRSAEncryption
        Issuer: C=RU, ST=MOSCOW, L=MOSCOW, O=BLACK STAR WEAR, OU=BLACK STAR WEAR, CN=BSW.SALE/name=BSW.SALE/emailAddress=info@blackstarwear.ru
        Validity
            Not Before: Nov 19 11:02:58 2017 GMT
            Not After : Nov 17 11:02:58 2027 GMT
        Subject: C=RU, ST=Moscow, L=Moscow, O=Black Star Russia, OU=Black Star Wear, CN=xo.bsw.sale-server
        Subject Public Key Info:
            Public Key Algorithm: rsaEncryption
                Public-Key: (2048 bit)
                Modulus:
                    00:ae:3e:e5:66:78:5d:3f:7d:ca:4b:4d:9d:81:b3:
                    49:3d:95:cc:17:9d:9e:cc:48:24:0b:65:4e:1b:d0:
                    f4:b7:9d:28:30:e6:99:5b:7d:80:c5:93:7f:7b:0d:
                    04:1b:70:dd:ec:18:f9:63:5e:a0:59:cc:f7:66:92:
                    2f:f5:62:92:6a:0f:7c:7d:89:47:77:81:ec:aa:7f:
                    65:1a:b9:bf:b3:0a:01:ca:89:6f:33:37:60:4b:94:
                    6c:7a:04:7c:0a:78:b5:f7:e6:ba:9a:93:84:73:a0:
                    74:69:23:ee:ca:a8:b6:24:0f:38:10:89:3f:58:8a:
                    8d:32:05:6d:7f:f2:e9:38:fe:9b:c1:28:76:30:f3:
                    13:bb:8f:19:5a:8a:8b:3f:3b:c7:3b:79:e6:a1:a9:
                    b7:6b:df:24:42:c7:41:50:b0:84:ce:16:49:5d:af:
                    0e:cb:be:61:14:7e:45:54:4b:c7:70:0c:02:59:22:
                    fc:74:ef:b2:65:c3:dd:63:25:03:b1:61:ad:03:a1:
                    8e:4e:c1:2f:e5:0d:f2:ab:55:70:d4:b9:b7:2a:9a:
                    b0:09:1c:69:90:15:98:de:93:9b:07:3a:fc:c6:df:
                    1b:b7:4b:81:8f:18:8f:b3:a0:bb:af:54:52:76:96:
                    a8:aa:8e:38:5c:1a:23:34:7e:e7:26:d6:a8:ff:56:
                    4d:ed
                Exponent: 65537 (0x10001)
        X509v3 extensions:
            X509v3 Basic Constraints: 
                CA:FALSE
            Netscape Cert Type: 
                SSL Server
            Netscape Comment: 
                Easy-RSA Generated Server Certificate
            X509v3 Subject Key Identifier: 
                86:4E:B9:9F:4E:61:06:E6:84:11:F0:FA:BC:85:B7:50:61:E8:B1:8E
            X509v3 Authority Key Identifier: 
                keyid:70:DD:12:A2:9B:66:2B:6F:FC:35:22:EF:F2:8B:3F:E4:F0:C1:1B:66
                DirName:/C=RU/ST=MOSCOW/L=MOSCOW/O=BLACK STAR WEAR/OU=BLACK STAR WEAR/CN=BSW.SALE/name=BSW.SALE/emailAddress=info@blackstarwear.ru
                serial:97:B0:CD:D3:A4:AF:16:18

            X509v3 Extended Key Usage: 
                TLS Web Server Authentication
            X509v3 Key Usage: 
                Digital Signature, Key Encipherment
    Signature Algorithm: sha256WithRSAEncryption
         3d:ac:6a:1f:90:7b:87:73:b1:20:68:b1:55:cf:02:d2:d5:e1:
         fe:81:bd:45:79:a5:30:3d:30:4e:e4:fc:b6:a3:35:23:63:dd:
         56:e8:77:04:7f:68:11:e3:f4:31:88:31:af:61:f3:77:cc:22:
         a2:a3:a0:03:e0:d7:85:53:bc:a3:f8:b6:21:d5:b1:83:8c:8f:
         13:60:6a:35:51:26:c8:2f:17:45:07:79:0a:3a:d2:90:2c:c5:
         15:76:3a:1d:35:ae:58:67:69:d9:e1:91:33:22:a9:d3:52:b5:
         1a:fb:9c:30:db:b9:f8:de:89:2b:b0:90:cd:c7:9b:3c:4e:bb:
         0d:10:13:0a:5a:68:5c:94:15:2b:c0:88:67:f5:7f:dc:25:1a:
         7c:e7:5c:6c:60:49:da:4a:8c:ac:a6:9e:2f:22:fb:01:d2:eb:
         6e:b6:c8:15:3d:df:6b:06:ee:10:61:a7:72:d3:d8:0f:31:d4:
         d5:ba:3c:0d:64:ec:49:d1:9d:e4:6a:b5:69:e3:85:01:28:c7:
         1e:66:c4:41:eb:94:d4:35:79:9e:97:da:14:8c:d9:3d:01:a7:
         05:c6:1b:86:aa:e5:fe:65:31:12:85:70:a7:9f:78:e2:fe:4a:
         73:07:8c:70:d7:22:e6:86:3e:61:e5:89:21:30:8a:19:0b:10:
         1d:74:9e:e8:74:99:1e:79:32:be:8f:d2:0a:b1:00:c3:60:f0:
         1d:c8:c3:66:9d:62:0c:c5:a7:a6:52:e4:e2:96:d2:f9:dd:60:
         2d:cb:d9:07:07:79:4e:a6:2d:87:48:96:9e:b6:b9:bc:86:b7:
         b8:be:49:20:a6:2c:74:44:7b:d7:0b:97:a0:c7:2a:06:a0:9d:
         53:a1:3e:81:9c:a6:7b:c1:17:0b:e2:65:b7:30:6f:85:37:47:
         da:a4:31:23:47:29:49:eb:5f:a9:01:0b:55:46:8f:f6:bc:26:
         a3:0c:8c:70:ba:97:05:c1:5b:a3:a9:a3:3c:c5:1c:36:fd:3d:
         03:14:4c:be:c5:be:c1:ee:49:22:26:6d:e0:24:b0:03:18:06:
         83:3b:a6:91:36:6e:51:49:0e:e2:3b:ea:d6:ff:9a:0f:17:7d:
         80:ef:5b:f0:60:8d:d1:8d:86:ce:e7:b2:bb:53:36:d1:bf:a4:
         08:0b:54:57:7b:81:f1:86:ba:c5:a0:40:63:c1:fa:fa:9f:a9:
         27:3f:c6:a0:f5:c9:91:92:af:e3:01:89:68:47:82:80:d8:27:
         89:be:9c:60:33:0b:64:ba:07:60:5b:07:c5:6d:1e:e2:9b:68:
         55:e8:46:29:31:2e:09:d5:d0:8c:3d:90:1b:91:41:8b:eb:19:
         02:6c:29:aa:40:c8:87:d5
-----BEGIN CERTIFICATE-----
MIIGMDCCBBigAwIBAgIBAjANBgkqhkiG9w0BAQsFADCBrzELMAkGA1UEBhMCUlUx
DzANBgNVBAgTBk1PU0NPVzEPMA0GA1UEBxMGTU9TQ09XMRgwFgYDVQQKEw9CTEFD
SyBTVEFSIFdFQVIxGDAWBgNVBAsTD0JMQUNLIFNUQVIgV0VBUjERMA8GA1UEAxMI
QlNXLlNBTEUxETAPBgNVBCkTCEJTVy5TQUxFMSQwIgYJKoZIhvcNAQkBFhVpbmZv
QGJsYWNrc3RhcndlYXIucnUwHhcNMTcxMTE5MTEwMjU4WhcNMjcxMTE3MTEwMjU4
WjCBgjELMAkGA1UEBhMCUlUxDzANBgNVBAgMBk1vc2NvdzEPMA0GA1UEBwwGTW9z
Y293MRowGAYDVQQKDBFCbGFjayBTdGFyIFJ1c3NpYTEYMBYGA1UECwwPQmxhY2sg
U3RhciBXZWFyMRswGQYDVQQDDBJ4by5ic3cuc2FsZS1zZXJ2ZXIwggEiMA0GCSqG
SIb3DQEBAQUAA4IBDwAwggEKAoIBAQCuPuVmeF0/fcpLTZ2Bs0k9lcwXnZ7MSCQL
ZU4b0PS3nSgw5plbfYDFk397DQQbcN3sGPljXqBZzPdmki/1YpJqD3x9iUd3geyq
f2Uaub+zCgHKiW8zN2BLlGx6BHwKeLX35rqak4RzoHRpI+7KqLYkDzgQiT9Yio0y
BW1/8uk4/pvBKHYw8xO7jxlaios/O8c7eeahqbdr3yRCx0FQsITOFkldrw7LvmEU
fkVUS8dwDAJZIvx077Jlw91jJQOxYa0DoY5OwS/lDfKrVXDUubcqmrAJHGmQFZje
k5sHOvzG3xu3S4GPGI+zoLuvVFJ2lqiqjjhcGiM0fucm1qj/Vk3tAgMBAAGjggGA
MIIBfDAJBgNVHRMEAjAAMBEGCWCGSAGG+EIBAQQEAwIGQDA0BglghkgBhvhCAQ0E
JxYlRWFzeS1SU0EgR2VuZXJhdGVkIFNlcnZlciBDZXJ0aWZpY2F0ZTAdBgNVHQ4E
FgQUhk65n05hBuaEEfD6vIW3UGHosY4wgeQGA1UdIwSB3DCB2YAUcN0SoptmK2/8
NSLv8os/5PDBG2ahgbWkgbIwga8xCzAJBgNVBAYTAlJVMQ8wDQYDVQQIEwZNT1ND
T1cxDzANBgNVBAcTBk1PU0NPVzEYMBYGA1UEChMPQkxBQ0sgU1RBUiBXRUFSMRgw
FgYDVQQLEw9CTEFDSyBTVEFSIFdFQVIxETAPBgNVBAMTCEJTVy5TQUxFMREwDwYD
VQQpEwhCU1cuU0FMRTEkMCIGCSqGSIb3DQEJARYVaW5mb0BibGFja3N0YXJ3ZWFy
LnJ1ggkAl7DN06SvFhgwEwYDVR0lBAwwCgYIKwYBBQUHAwEwCwYDVR0PBAQDAgWg
MA0GCSqGSIb3DQEBCwUAA4ICAQA9rGofkHuHc7EgaLFVzwLS1eH+gb1FeaUwPTBO
5Py2ozUjY91W6HcEf2gR4/QxiDGvYfN3zCKio6AD4NeFU7yj+LYh1bGDjI8TYGo1
USbILxdFB3kKOtKQLMUVdjodNa5YZ2nZ4ZEzIqnTUrUa+5ww27n43okrsJDNx5s8
TrsNEBMKWmhclBUrwIhn9X/cJRp851xsYEnaSoyspp4vIvsB0ututsgVPd9rBu4Q
Yady09gPMdTVujwNZOxJ0Z3karVp44UBKMceZsRB65TUNXmel9oUjNk9AacFxhuG
quX+ZTEShXCnn3ji/kpzB4xw1yLmhj5h5YkhMIoZCxAddJ7odJkeeTK+j9IKsQDD
YPAdyMNmnWIMxaemUuTiltL53WAty9kHB3lOpi2HSJaetrm8hre4vkkgpix0RHvX
C5egxyoGoJ1ToT6BnKZ7wRcL4mW3MG+FN0fapDEjRylJ61+pAQtVRo/2vCajDIxw
upcFwVujqaM8xRw2/T0DFEy+xb7B7kkiJm3gJLADGAaDO6aRNm5RSQ7iO+rW/5oP
F32A71vwYI3RjYbO57K7UzbRv6QIC1RXe4HxhrrFoEBjwfr6n6knP8ag9cmRkq/j
AYloR4KA2CeJvpxgMwtkugdgWwfFbR7im2hV6EYpMS4J1dCMPZAbkUGL6xkCbCmq
QMiH1Q==
-----END CERTIFICATE-----
