Certificate:
    Data:
        Version: 3 (0x2)
        Serial Number: 1 (0x1)
    Signature Algorithm: sha256WithRSAEncryption
        Issuer: C=RU, ST=MOSCOW, L=MOSCOW, O=BLACK STAR WEAR, OU=BLACK STAR WEAR, CN=BSW.SALE/name=BSW.SALE/emailAddress=info@blackstarwear.ru
        Validity
            Not Before: Nov 18 21:03:58 2017 GMT
            Not After : Nov 16 21:03:58 2027 GMT
        Subject: C=RU, ST=MOSCOW, L=MOSCOW, O=BLACK STAR, OU=BLACK STAR WEAR, CN=BSW.SALE/name=BSW.SALE/emailAddress=info@blackstarwear.ru
        Subject Public Key Info:
            Public Key Algorithm: rsaEncryption
                Public-Key: (4096 bit)
                Modulus:
                    00:cf:8f:a5:ef:21:d7:0c:56:b6:94:f0:43:b2:4f:
                    50:02:71:6f:a5:04:77:ea:8c:b1:ec:ad:88:da:4b:
                    b8:3c:4d:79:9f:35:4e:65:66:fb:0d:23:33:fa:aa:
                    dc:20:b9:d4:4e:95:3b:8a:aa:1e:ef:66:5e:dc:af:
                    83:7d:2a:c1:63:03:8e:5b:e6:41:7a:2e:4b:07:fe:
                    c7:d4:e1:30:d8:60:52:8a:f7:47:c5:f6:0d:9a:79:
                    3c:80:fa:c0:58:e1:d2:b0:2c:05:65:a1:21:06:df:
                    e9:32:6d:02:b1:f5:44:49:ee:3d:b7:2a:f6:7f:92:
                    54:40:6d:da:1f:11:c7:24:de:54:7d:c0:39:9c:0d:
                    5a:83:bf:87:e7:7d:0e:32:9c:fd:95:bc:be:c9:77:
                    f3:e9:7e:97:53:2a:70:db:a3:d8:b7:ca:e9:86:8f:
                    c9:d3:c5:9f:cc:fa:57:28:02:8d:e9:c2:98:0e:6b:
                    8f:49:57:38:c5:df:0a:94:aa:eb:9c:89:49:d1:68:
                    9f:e4:c0:b7:e6:08:25:23:5e:1b:25:5d:70:92:32:
                    45:45:94:a6:63:73:ed:32:fa:8d:02:f1:43:52:0d:
                    1a:11:59:8c:2a:02:93:a2:be:a9:b1:cd:76:e7:76:
                    f2:65:57:16:17:d2:29:3e:40:b9:c6:a0:38:6e:69:
                    6e:d2:66:b4:7d:88:3f:94:4b:37:4a:19:37:8a:af:
                    72:8d:89:63:13:33:bf:54:67:96:1b:97:00:75:40:
                    ad:a6:d7:79:43:40:4c:51:20:fd:f8:67:b7:ba:34:
                    f0:e3:e1:7a:ec:ca:4f:af:a9:2e:56:9b:f7:da:36:
                    ae:e8:83:73:18:b0:e4:4e:d9:22:16:70:b8:7d:16:
                    c3:dd:12:5a:91:13:c0:ea:98:62:34:5c:83:af:11:
                    7d:ca:52:db:7a:af:ae:0c:8c:69:34:fe:e3:1e:10:
                    4a:33:35:1a:7b:b5:2f:d2:8e:9d:20:8c:63:09:a3:
                    b9:49:93:ca:1f:94:72:3a:ea:77:1d:f4:0f:62:43:
                    92:bf:e9:fe:85:86:a3:ed:11:12:59:a9:8a:73:7c:
                    58:28:d0:94:8f:f0:11:52:85:e9:47:6e:03:91:91:
                    8f:73:29:c9:95:89:ad:e0:65:f8:78:f3:57:8e:6e:
                    dc:ec:be:15:84:17:2e:4d:4a:eb:bd:cb:86:c5:0e:
                    4b:14:f8:cd:c5:8d:8e:a8:96:4b:53:40:0c:50:1f:
                    f1:58:78:99:6b:39:b6:96:ab:ff:10:09:d6:24:6c:
                    44:5c:18:4d:eb:c6:7d:d8:f1:40:a8:82:42:ae:7d:
                    d0:fb:6a:d7:fd:bc:cb:89:6c:84:0d:a7:ca:aa:a3:
                    7c:7f:03
                Exponent: 65537 (0x10001)
        X509v3 extensions:
            X509v3 Basic Constraints: 
                CA:FALSE
            Netscape Comment: 
                Easy-RSA Generated Certificate
            X509v3 Subject Key Identifier: 
                E2:B2:51:E8:75:44:0F:49:49:70:0A:33:8F:D7:41:D6:22:F7:4D:AA
            X509v3 Authority Key Identifier: 
                keyid:70:DD:12:A2:9B:66:2B:6F:FC:35:22:EF:F2:8B:3F:E4:F0:C1:1B:66
                DirName:/C=RU/ST=MOSCOW/L=MOSCOW/O=BLACK STAR WEAR/OU=BLACK STAR WEAR/CN=BSW.SALE/name=BSW.SALE/emailAddress=info@blackstarwear.ru
                serial:97:B0:CD:D3:A4:AF:16:18

            X509v3 Extended Key Usage: 
                TLS Web Client Authentication
            X509v3 Key Usage: 
                Digital Signature
    Signature Algorithm: sha256WithRSAEncryption
         9a:ae:8e:61:08:b5:6b:43:b2:94:ec:c2:01:e0:39:5b:2f:2b:
         38:d4:66:4d:fd:d5:ca:c5:d0:f0:db:02:b9:93:c3:ce:e3:ce:
         d7:d1:31:c6:32:54:cc:6a:14:81:c6:bb:25:74:f8:20:f1:78:
         9b:58:53:c2:58:df:e2:d6:7d:6e:f3:46:f8:c2:c4:a5:64:74:
         a6:99:4b:91:4b:c8:02:7e:3d:31:1d:70:16:b5:d3:d5:4c:cd:
         fa:33:ce:99:da:45:01:80:4f:c1:1e:91:34:11:fc:47:55:78:
         c5:f5:b1:55:1b:b8:9b:86:91:29:6c:0c:8b:c3:2e:2b:ba:02:
         50:fa:08:29:1f:e4:05:93:e9:c4:9f:78:25:9f:70:6f:5e:26:
         f2:f9:45:fb:9f:68:0f:dd:f9:25:57:ac:e5:df:5b:60:e4:5d:
         20:8b:54:9a:2e:f8:f2:bb:dc:91:d5:5b:80:62:8d:8b:cc:4f:
         43:49:93:6a:d2:be:95:14:17:5a:80:e8:5e:b4:46:e9:3b:d1:
         4f:00:57:3d:52:6d:b5:af:e0:25:65:6d:83:b5:81:c9:15:43:
         3b:88:36:52:30:6c:a3:93:fa:b6:5b:64:29:85:09:7d:92:13:
         39:05:4b:bb:8e:70:90:4b:51:ef:f7:29:39:49:2e:2c:ec:5e:
         43:a1:a2:74:e5:5c:ba:fd:5f:81:c0:3f:28:ea:ec:4d:90:ef:
         b6:2b:2f:38:e5:c6:4e:dd:b2:5d:b1:d5:34:8e:60:2e:86:04:
         01:77:4e:7a:81:29:e2:be:c5:66:06:23:af:16:72:ab:c0:34:
         a4:8e:c9:60:b4:26:16:50:d8:a5:a4:d8:6c:ff:fa:e5:a0:26:
         d2:82:9a:e7:a5:47:4a:8d:3e:94:2e:b4:b9:36:e4:e8:50:a5:
         a6:31:d2:e5:96:d9:cd:83:7e:f7:bf:4b:38:9b:36:71:73:ce:
         21:cb:42:69:00:c3:f8:f3:18:ff:e6:34:a3:7a:1c:3b:f2:80:
         c7:f5:e7:cc:d9:53:75:24:fc:fe:92:6b:cf:cf:b3:85:d2:dc:
         53:05:16:61:1c:e7:b5:6b:51:eb:45:2e:6f:4c:f8:a7:2e:64:
         25:70:e7:d7:b9:d8:33:68:cf:aa:d0:9b:de:5e:05:b0:b9:79:
         f7:1e:5e:29:7f:ec:aa:bd:7c:9a:02:c3:72:f1:a9:cf:cd:45:
         fa:19:30:a8:d7:f1:03:7b:13:3c:86:9d:09:5e:46:9a:ab:e0:
         ae:c3:e9:31:01:16:d4:17:66:f9:0f:5a:f6:a5:e8:96:4d:7a:
         5a:27:f3:8b:41:1d:f2:79:cd:2f:bb:d0:0d:57:38:45:2f:16:
         8f:14:33:3c:51:1a:21:28
-----BEGIN CERTIFICATE-----
MIIHPjCCBSagAwIBAgIBATANBgkqhkiG9w0BAQsFADCBrzELMAkGA1UEBhMCUlUx
DzANBgNVBAgTBk1PU0NPVzEPMA0GA1UEBxMGTU9TQ09XMRgwFgYDVQQKEw9CTEFD
SyBTVEFSIFdFQVIxGDAWBgNVBAsTD0JMQUNLIFNUQVIgV0VBUjERMA8GA1UEAxMI
QlNXLlNBTEUxETAPBgNVBCkTCEJTVy5TQUxFMSQwIgYJKoZIhvcNAQkBFhVpbmZv
QGJsYWNrc3RhcndlYXIucnUwHhcNMTcxMTE4MjEwMzU4WhcNMjcxMTE2MjEwMzU4
WjCBqjELMAkGA1UEBhMCUlUxDzANBgNVBAgTBk1PU0NPVzEPMA0GA1UEBxMGTU9T
Q09XMRMwEQYDVQQKEwpCTEFDSyBTVEFSMRgwFgYDVQQLEw9CTEFDSyBTVEFSIFdF
QVIxETAPBgNVBAMTCEJTVy5TQUxFMREwDwYDVQQpEwhCU1cuU0FMRTEkMCIGCSqG
SIb3DQEJARYVaW5mb0BibGFja3N0YXJ3ZWFyLnJ1MIICIjANBgkqhkiG9w0BAQEF
AAOCAg8AMIICCgKCAgEAz4+l7yHXDFa2lPBDsk9QAnFvpQR36oyx7K2I2ku4PE15
nzVOZWb7DSMz+qrcILnUTpU7iqoe72Ze3K+DfSrBYwOOW+ZBei5LB/7H1OEw2GBS
ivdHxfYNmnk8gPrAWOHSsCwFZaEhBt/pMm0CsfVESe49tyr2f5JUQG3aHxHHJN5U
fcA5nA1ag7+H530OMpz9lby+yXfz6X6XUypw26PYt8rpho/J08WfzPpXKAKN6cKY
DmuPSVc4xd8KlKrrnIlJ0Wif5MC35gglI14bJV1wkjJFRZSmY3PtMvqNAvFDUg0a
EVmMKgKTor6psc1253byZVcWF9IpPkC5xqA4bmlu0ma0fYg/lEs3Shk3iq9yjYlj
EzO/VGeWG5cAdUCtptd5Q0BMUSD9+Ge3ujTw4+F67MpPr6kuVpv32jau6INzGLDk
TtkiFnC4fRbD3RJakRPA6phiNFyDrxF9ylLbeq+uDIxpNP7jHhBKMzUae7Uv0o6d
IIxjCaO5SZPKH5RyOup3HfQPYkOSv+n+hYaj7RESWamKc3xYKNCUj/ARUoXpR24D
kZGPcynJlYmt4GX4ePNXjm7c7L4VhBcuTUrrvcuGxQ5LFPjNxY2OqJZLU0AMUB/x
WHiZazm2lqv/EAnWJGxEXBhN68Z92PFAqIJCrn3Q+2rX/bzLiWyEDafKqqN8fwMC
AwEAAaOCAWYwggFiMAkGA1UdEwQCMAAwLQYJYIZIAYb4QgENBCAWHkVhc3ktUlNB
IEdlbmVyYXRlZCBDZXJ0aWZpY2F0ZTAdBgNVHQ4EFgQU4rJR6HVED0lJcAozj9dB
1iL3TaowgeQGA1UdIwSB3DCB2YAUcN0SoptmK2/8NSLv8os/5PDBG2ahgbWkgbIw
ga8xCzAJBgNVBAYTAlJVMQ8wDQYDVQQIEwZNT1NDT1cxDzANBgNVBAcTBk1PU0NP
VzEYMBYGA1UEChMPQkxBQ0sgU1RBUiBXRUFSMRgwFgYDVQQLEw9CTEFDSyBTVEFS
IFdFQVIxETAPBgNVBAMTCEJTVy5TQUxFMREwDwYDVQQpEwhCU1cuU0FMRTEkMCIG
CSqGSIb3DQEJARYVaW5mb0BibGFja3N0YXJ3ZWFyLnJ1ggkAl7DN06SvFhgwEwYD
VR0lBAwwCgYIKwYBBQUHAwIwCwYDVR0PBAQDAgeAMA0GCSqGSIb3DQEBCwUAA4IC
AQCaro5hCLVrQ7KU7MIB4DlbLys41GZN/dXKxdDw2wK5k8PO487X0THGMlTMahSB
xrsldPgg8XibWFPCWN/i1n1u80b4wsSlZHSmmUuRS8gCfj0xHXAWtdPVTM36M86Z
2kUBgE/BHpE0EfxHVXjF9bFVG7ibhpEpbAyLwy4rugJQ+ggpH+QFk+nEn3gln3Bv
Xiby+UX7n2gP3fklV6zl31tg5F0gi1SaLvjyu9yR1VuAYo2LzE9DSZNq0r6VFBda
gOhetEbpO9FPAFc9Um21r+AlZW2DtYHJFUM7iDZSMGyjk/q2W2QphQl9khM5BUu7
jnCQS1Hv9yk5SS4s7F5DoaJ05Vy6/V+BwD8o6uxNkO+2Ky845cZO3bJdsdU0jmAu
hgQBd056gSnivsVmBiOvFnKrwDSkjslgtCYWUNilpNhs//rloCbSgprnpUdKjT6U
LrS5NuToUKWmMdLlltnNg373v0s4mzZxc84hy0JpAMP48xj/5jSjehw78oDH9efM
2VN1JPz+kmvPz7OF0txTBRZhHOe1a1HrRS5vTPinLmQlcOfXudgzaM+q0JveXgWw
uXn3Hl4pf+yqvXyaAsNy8anPzUX6GTCo1/EDexM8hp0JXkaaq+Cuw+kxARbUF2b5
D1r2peiWTXpaJ/OLQR3yec0vu9ANVzhFLxaPFDM8URohKA==
-----END CERTIFICATE-----
